target datalayout = "e-m:e-p270:32:32-p271:32:32-p272:64:64-i64:64-i128:128-f80:128-n8:16:32:64-S128"
target triple = "x86_64-pc-linux-gnu"

%struct._cmsMutexPluginChunkType = type { ptr, ptr, ptr, ptr }

; Function Attrs: nounwind uwtable
define hidden ptr @_cmsCreateMutex(ptr noundef %0) #0 {
  %2 = alloca ptr, align 8
  %3 = alloca ptr, align 8
  %4 = alloca ptr, align 8
  store ptr %0, ptr %3, align 8
  %5 = load ptr, ptr %3, align 8
  %6 = call ptr @_cmsContextGetClientChunk(ptr noundef %5, i32 noundef 14)
  store ptr %6, ptr %4, align 8
  %7 = load ptr, ptr %4, align 8
  %8 = getelementptr inbounds %struct._cmsMutexPluginChunkType, ptr %7, i32 0, i32 0
  %9 = load ptr, ptr %8, align 8
  %10 = icmp eq ptr %9, null
  br i1 %10, label %11, label %12

11:                                               ; preds = %1
  store ptr null, ptr %2, align 8
  br label %18

12:                                               ; preds = %1
  %13 = load ptr, ptr %4, align 8
  %14 = getelementptr inbounds %struct._cmsMutexPluginChunkType, ptr %13, i32 0, i32 0
  %15 = load ptr, ptr %14, align 8
  %16 = load ptr, ptr %3, align 8
  %17 = call ptr %15(ptr noundef %16)
  store ptr %17, ptr %2, align 8
  br label %18

18:                                               ; preds = %12, %11
  %19 = load ptr, ptr %2, align 8
  ret ptr %19
}