; Function Attrs: nounwind uwtable
define hidden ptr @_cmsCreateMutex(ptr noundef %0) local_unnamed_addr #6 {
  %2 = tail call ptr @_cmsContextGetClientChunk(ptr noundef %0, i32 noundef 14) #20
  %3 = load ptr, ptr %2, align 8
  %4 = icmp eq ptr %3, null
  br i1 %4, label %7, label %5

5:                                                ; preds = %1
  %6 = tail call ptr %3(ptr noundef %0) #20
  br label %7

7:                                                ; preds = %1, %5
  %.0 = phi ptr [ %6, %5 ], [ null, %1 ]
  ret ptr %.0
}